target datalayout = "e-m:e-p270:32:32-p271:32:32-p272:64:64-i64:64-i128:128-f80:128-n8:16:32:64-S128"
target triple = "x86_64-pc-linux-gnu"

%struct.va_format = type { ptr, ptr }
%struct.__va_list_tag = type { i32, i32, ptr, ptr }

@.str = private unnamed_addr constant [13 x i8] c"%d: %pV: %s\0A\00", align 1
@.str.1 = private unnamed_addr constant [9 x i8] c"%d: %pV\0A\00", align 1

; Function Attrs: nounwind uwtable
define void @vwarn_func(ptr noundef %0, ptr noundef %1) #0 {
  %3 = alloca ptr, align 8
  %4 = alloca ptr, align 8
  %5 = alloca i32, align 4
  %6 = alloca %struct.va_format, align 8
  %7 = alloca [1 x %struct.__va_list_tag], align 16
  store ptr %0, ptr %3, align 8
  store ptr %1, ptr %4, align 8
  %8 = call ptr @__errno()
  %9 = load i32, ptr %8, align 4
  store i32 %9, ptr %5, align 4
  %10 = getelementptr inbounds [1 x %struct.__va_list_tag], ptr %7, i64 0, i64 0
  %11 = load ptr, ptr %4, align 8
  call void @llvm.va_copy(ptr %10, ptr %11)
  %12 = load ptr, ptr %3, align 8
  %13 = getelementptr inbounds %struct.va_format, ptr %6, i32 0, i32 0
  store ptr %12, ptr %13, align 8
  %14 = getelementptr inbounds %struct.va_format, ptr %6, i32 0, i32 1
  store ptr %7, ptr %14, align 8
  %15 = call ptr @lib_get_stream(i32 noundef 2)
  %16 = call i32 @gettid()
  %17 = load i32, ptr %5, align 4
  %18 = call ptr @strerror(i32 noundef %17)
  %19 = call i32 (ptr, ptr, ...) @fprintf(ptr noundef %15, ptr noundef @.str, i32 noundef %16, ptr noundef %6, ptr noundef %18) #5
  %20 = getelementptr inbounds [1 x %struct.__va_list_tag], ptr %7, i64 0, i64 0
  call void @llvm.va_end(ptr %20)
  ret void
}

declare ptr @__errno() #1

; Function Attrs: nocallback nofree nosync nounwind willreturn
declare void @llvm.va_copy(ptr, ptr) #2

; Function Attrs: nounwind
declare i32 @fprintf(ptr noundef, ptr noundef, ...) #3

declare ptr @lib_get_stream(i32 noundef) #1

declare i32 @gettid() #1

declare ptr @strerror(i32 noundef) #1

; Function Attrs: nocallback nofree nosync nounwind willreturn
declare void @llvm.va_end(ptr) #2

; Function Attrs: nounwind uwtable
define void @vwarnx_func(ptr noundef %0, ptr noundef %1) #0 {
  %3 = alloca ptr, align 8
  %4 = alloca ptr, align 8
  %5 = alloca %struct.va_format, align 8
  %6 = alloca [1 x %struct.__va_list_tag], align 16
  store ptr %0, ptr %3, align 8
  store ptr %1, ptr %4, align 8
  %7 = getelementptr inbounds [1 x %struct.__va_list_tag], ptr %6, i64 0, i64 0
  %8 = load ptr, ptr %4, align 8
  call void @llvm.va_copy(ptr %7, ptr %8)
  %9 = load ptr, ptr %3, align 8
  %10 = getelementptr inbounds %struct.va_format, ptr %5, i32 0, i32 0
  store ptr %9, ptr %10, align 8
  %11 = getelementptr inbounds %struct.va_format, ptr %5, i32 0, i32 1
  store ptr %6, ptr %11, align 8
  %12 = call ptr @lib_get_stream(i32 noundef 2)
  %13 = call i32 @gettid()
  %14 = call i32 (ptr, ptr, ...) @fprintf(ptr noundef %12, ptr noundef @.str.1, i32 noundef %13, ptr noundef %5) #5
  %15 = getelementptr inbounds [1 x %struct.__va_list_tag], ptr %6, i64 0, i64 0
  call void @llvm.va_end(ptr %15)
  ret void
}

; Function Attrs: nounwind uwtable
define void @warn_func(ptr noundef %0, ...) #0 {
  %2 = alloca ptr, align 8
  %3 = alloca [1 x %struct.__va_list_tag], align 16
  store ptr %0, ptr %2, align 8
  br label %4

4:                                                ; preds = %1
  %5 = getelementptr inbounds [1 x %struct.__va_list_tag], ptr %3, i64 0, i64 0
  call void @llvm.va_start(ptr %5)
  %6 = load ptr, ptr %2, align 8
  %7 = getelementptr inbounds [1 x %struct.__va_list_tag], ptr %3, i64 0, i64 0
  call void @vwarn_func(ptr noundef %6, ptr noundef %7)
  %8 = getelementptr inbounds [1 x %struct.__va_list_tag], ptr %3, i64 0, i64 0
  call void @llvm.va_end(ptr %8)
  br label %9

9:                                                ; preds = %4
  ret void
}

; Function Attrs: nocallback nofree nosync nounwind willreturn
declare void @llvm.va_start(ptr) #2

; Function Attrs: nounwind uwtable
define void @warnx_func(ptr noundef %0, ...) #0 {
  %2 = alloca ptr, align 8
  %3 = alloca [1 x %struct.__va_list_tag], align 16
  store ptr %0, ptr %2, align 8
  br label %4

4:                                                ; preds = %1
  %5 = getelementptr inbounds [1 x %struct.__va_list_tag], ptr %3, i64 0, i64 0
  call void @llvm.va_start(ptr %5)
  %6 = load ptr, ptr %2, align 8
  %7 = getelementptr inbounds [1 x %struct.__va_list_tag], ptr %3, i64 0, i64 0
  call void @vwarnx_func(ptr noundef %6, ptr noundef %7)
  %8 = getelementptr inbounds [1 x %struct.__va_list_tag], ptr %3, i64 0, i64 0
  call void @llvm.va_end(ptr %8)
  br label %9

9:                                                ; preds = %4
  ret void
}

; Function Attrs: nounwind uwtable
define void @verr_func(i32 noundef %0, ptr noundef %1, ptr noundef %2) #0 {
  %4 = alloca i32, align 4
  %5 = alloca ptr, align 8
  %6 = alloca ptr, align 8
  store i32 %0, ptr %4, align 4
  store ptr %1, ptr %5, align 8
  store ptr %2, ptr %6, align 8
  %7 = load ptr, ptr %5, align 8
  %8 = load ptr, ptr %6, align 8
  call void @vwarn_func(ptr noundef %7, ptr noundef %8)
  %9 = load i32, ptr %4, align 4
  call void @exit(i32 noundef %9) #6
  unreachable
}

; Function Attrs: noreturn
declare void @exit(i32 noundef) #4

; Function Attrs: nounwind uwtable
define void @verrx_func(i32 noundef %0, ptr noundef %1, ptr noundef %2) #0 {
  %4 = alloca i32, align 4
  %5 = alloca ptr, align 8
  %6 = alloca ptr, align 8
  store i32 %0, ptr %4, align 4
  store ptr %1, ptr %5, align 8
  store ptr %2, ptr %6, align 8
  %7 = load ptr, ptr %5, align 8
  %8 = load ptr, ptr %6, align 8
  call void @vwarnx_func(ptr noundef %7, ptr noundef %8)
  %9 = load i32, ptr %4, align 4
  call void @exit(i32 noundef %9) #6
  unreachable
}

; Function Attrs: nounwind uwtable
define void @err_func(i32 noundef %0, ptr noundef %1, ...) #0 {
  %3 = alloca i32, align 4
  %4 = alloca ptr, align 8
  %5 = alloca [1 x %struct.__va_list_tag], align 16
  store i32 %0, ptr %3, align 4
  store ptr %1, ptr %4, align 8
  br label %6

6:                                                ; preds = %2
  %7 = getelementptr inbounds [1 x %struct.__va_list_tag], ptr %5, i64 0, i64 0
  call void @llvm.va_start(ptr %7)
  %8 = load i32, ptr %3, align 4
  %9 = load ptr, ptr %4, align 8
  %10 = getelementptr inbounds [1 x %struct.__va_list_tag], ptr %5, i64 0, i64 0
  call void @verr_func(i32 noundef %8, ptr noundef %9, ptr noundef %10)
  %11 = getelementptr inbounds [1 x %struct.__va_list_tag], ptr %5, i64 0, i64 0
  call void @llvm.va_end(ptr %11)
  br label %12

12:                                               ; preds = %6
  ret void
}

; Function Attrs: nounwind uwtable
define void @errx_func(i32 noundef %0, ptr noundef %1, ...) #0 {
  %3 = alloca i32, align 4
  %4 = alloca ptr, align 8
  %5 = alloca [1 x %struct.__va_list_tag], align 16
  store i32 %0, ptr %3, align 4
  store ptr %1, ptr %4, align 8
  br label %6

6:                                                ; preds = %2
  %7 = getelementptr inbounds [1 x %struct.__va_list_tag], ptr %5, i64 0, i64 0
  call void @llvm.va_start(ptr %7)
  %8 = load i32, ptr %3, align 4
  %9 = load ptr, ptr %4, align 8
  %10 = getelementptr inbounds [1 x %struct.__va_list_tag], ptr %5, i64 0, i64 0
  call void @verrx_func(i32 noundef %8, ptr noundef %9, ptr noundef %10)
  %11 = getelementptr inbounds [1 x %struct.__va_list_tag], ptr %5, i64 0, i64 0
  call void @llvm.va_end(ptr %11)
  br label %12

12:                                               ; preds = %6
  ret void
}


!llvm.module.flags = !{!0, !1, !2, !3, !4, !5}

!0 = !{i32 7, !"Dwarf Version", i32 5}
!1 = !{i32 2, !"Debug Info Version", i32 3}
!2 = !{i32 1, !"wchar_size", i32 4}
!3 = !{i32 8, !"PIC Level", i32 2}
!4 = !{i32 7, !"uwtable", i32 2}
!5 = !{i32 7, !"frame-pointer", i32 2}
